; Function Attrs: nounwind sspstrong uwtable
define internal fastcc i64 @r_symlink(ptr noundef captures(none) %0) unnamed_addr #0 {
  %2 = alloca i64, align 8
  call void @llvm.lifetime.start.p0(i64 8, ptr nonnull %2) #22
  %3 = tail call fastcc i32 @r_byte(ptr noundef %0)
  %sext.i = shl nuw i32 %3, 24
  %4 = ashr exact i32 %sext.i, 24
  %5 = icmp eq i32 %3, 0
  br i1 %5, label %r_long.exit, label %6

6:                                                ; preds = %1
  %7 = icmp sgt i32 %4, 0
  br i1 %7, label %8, label %21

8:                                                ; preds = %6
  %9 = icmp samesign ugt i32 %4, 4
  br i1 %9, label %11, label %.preheader.i

.preheader.i:                                     ; preds = %8
  %10 = zext nneg i32 %4 to i64
  br label %14

11:                                               ; preds = %8
  %12 = add nsw i32 %4, -5
  %13 = zext nneg i32 %12 to i64
  br label %r_long.exit

14:                                               ; preds = %14, %.preheader.i
  %.042.i = phi i64 [ 0, %.preheader.i ], [ %20, %14 ]
  %.03241.i = phi i64 [ 0, %.preheader.i ], [ %19, %14 ]
  %15 = tail call fastcc i32 @r_byte(ptr noundef %0)
  %16 = zext nneg i32 %15 to i64
  %17 = shl nuw nsw i64 %.042.i, 3
  %18 = shl i64 %16, %17
  %19 = or i64 %18, %.03241.i
  %20 = add nuw nsw i64 %.042.i, 1
  %exitcond45.not.i = icmp eq i64 %20, %10
  br i1 %exitcond45.not.i, label %r_long.exit, label %14, !llvm.loop !25

21:                                               ; preds = %6
  %22 = icmp slt i32 %4, -4
  br i1 %22, label %23, label %26

23:                                               ; preds = %21
  %24 = add nsw i32 %4, 5
  %25 = sext i32 %24 to i64
  br label %r_long.exit

26:                                               ; preds = %21
  %27 = sub nsw i32 0, %4
  %28 = tail call i32 @llvm.umax.i32(i32 %27, i32 1)
  %umax.i = zext nneg i32 %28 to i64
  br label %29

29:                                               ; preds = %29, %26
  %.140.i = phi i64 [ 0, %26 ], [ %38, %29 ]
  %.239.i = phi i64 [ -1, %26 ], [ %37, %29 ]
  %30 = shl nuw nsw i64 %.140.i, 3
  %31 = shl i64 255, %30
  %32 = xor i64 %31, -1
  %33 = and i64 %.239.i, %32
  %34 = tail call fastcc i32 @r_byte(ptr noundef %0)
  %35 = zext nneg i32 %34 to i64
  %36 = shl i64 %35, %30
  %37 = or i64 %36, %33
  %38 = add nuw nsw i64 %.140.i, 1
  %exitcond.not.i = icmp eq i64 %38, %umax.i
  br i1 %exitcond.not.i, label %r_long.exit, label %29, !llvm.loop !26

r_long.exit:                                      ; preds = %29, %14, %1, %11, %23
  %.034.i = phi i64 [ %13, %11 ], [ %25, %23 ], [ 0, %1 ], [ %19, %14 ], [ %37, %29 ]
  %39 = getelementptr inbounds nuw i8, ptr %0, i64 40
  %40 = load ptr, ptr %39, align 8, !tbaa !47
  %41 = call i32 @rb_st_lookup(ptr noundef %40, i64 noundef %.034.i, ptr noundef nonnull %2) #22
  %.not = icmp eq i32 %41, 0
  br i1 %.not, label %42, label %44

42:                                               ; preds = %r_long.exit
  %43 = load i64, ptr @rb_eArgError, align 8, !tbaa !7
  call void (i64, ptr, ...) @rb_raise(i64 noundef %43, ptr noundef nonnull @.str.87) #23
  unreachable

44:                                               ; preds = %r_long.exit
  %45 = load i64, ptr %2, align 8, !tbaa !7
  call void @llvm.lifetime.end.p0(i64 8, ptr nonnull %2) #22
  ret i64 %45
}